target datalayout = "e-m:e-p270:32:32-p271:32:32-p272:64:64-i64:64-i128:128-f80:128-n8:16:32:64-S128"
target triple = "x86_64-pc-linux-gnu"

; Function Attrs: nounwind uwtable
define internal void @pred4x4_top_dc_10_c(ptr noundef %0, ptr noundef %1, i64 noundef %2) #1 {
  %4 = alloca ptr, align 8
  %5 = alloca ptr, align 8
  %6 = alloca i64, align 8
  %7 = alloca ptr, align 8
  %8 = alloca i32, align 4
  %9 = alloca i32, align 4
  %10 = alloca i64, align 8
  store ptr %0, ptr %4, align 8, !tbaa !12
  store ptr %1, ptr %5, align 8, !tbaa !12
  store i64 %2, ptr %6, align 8, !tbaa !14
  call void @llvm.lifetime.start.p0(i64 8, ptr %7) #9
  %11 = load ptr, ptr %4, align 8, !tbaa !12
  store ptr %11, ptr %7, align 8, !tbaa !16
  call void @llvm.lifetime.start.p0(i64 4, ptr %8) #9
  %12 = load i64, ptr %6, align 8, !tbaa !14
  %13 = ashr i64 %12, 1
  %14 = trunc i64 %13 to i32
  store i32 %14, ptr %8, align 4, !tbaa !9
  call void @llvm.lifetime.start.p0(i64 4, ptr %9) #9
  %15 = load ptr, ptr %7, align 8, !tbaa !16
  %16 = load i32, ptr %8, align 4, !tbaa !9
  %17 = sub nsw i32 0, %16
  %18 = sext i32 %17 to i64
  %19 = getelementptr inbounds i16, ptr %15, i64 %18
  %20 = load i16, ptr %19, align 2, !tbaa !19
  %21 = zext i16 %20 to i32
  %22 = load ptr, ptr %7, align 8, !tbaa !16
  %23 = load i32, ptr %8, align 4, !tbaa !9
  %24 = sub nsw i32 1, %23
  %25 = sext i32 %24 to i64
  %26 = getelementptr inbounds i16, ptr %22, i64 %25
  %27 = load i16, ptr %26, align 2, !tbaa !19
  %28 = zext i16 %27 to i32
  %29 = add nsw i32 %21, %28
  %30 = load ptr, ptr %7, align 8, !tbaa !16
  %31 = load i32, ptr %8, align 4, !tbaa !9
  %32 = sub nsw i32 2, %31
  %33 = sext i32 %32 to i64
  %34 = getelementptr inbounds i16, ptr %30, i64 %33
  %35 = load i16, ptr %34, align 2, !tbaa !19
  %36 = zext i16 %35 to i32
  %37 = add nsw i32 %29, %36
  %38 = load ptr, ptr %7, align 8, !tbaa !16
  %39 = load i32, ptr %8, align 4, !tbaa !9
  %40 = sub nsw i32 3, %39
  %41 = sext i32 %40 to i64
  %42 = getelementptr inbounds i16, ptr %38, i64 %41
  %43 = load i16, ptr %42, align 2, !tbaa !19
  %44 = zext i16 %43 to i32
  %45 = add nsw i32 %37, %44
  %46 = add nsw i32 %45, 2
  %47 = ashr i32 %46, 2
  store i32 %47, ptr %9, align 4, !tbaa !9
  call void @llvm.lifetime.start.p0(i64 8, ptr %10) #9
  %48 = load i32, ptr %9, align 4, !tbaa !9
  %49 = sext i32 %48 to i64
  %50 = mul i64 %49, 281479271743489
  store i64 %50, ptr %10, align 8, !tbaa !14
  %51 = load i64, ptr %10, align 8, !tbaa !14
  %52 = load ptr, ptr %7, align 8, !tbaa !16
  %53 = load i32, ptr %8, align 4, !tbaa !9
  %54 = mul nsw i32 0, %53
  %55 = sext i32 %54 to i64
  %56 = getelementptr inbounds i16, ptr %52, i64 %55
  store i64 %51, ptr %56, align 8, !tbaa !18
  %57 = load i64, ptr %10, align 8, !tbaa !14
  %58 = load ptr, ptr %7, align 8, !tbaa !16
  %59 = load i32, ptr %8, align 4, !tbaa !9
  %60 = mul nsw i32 1, %59
  %61 = sext i32 %60 to i64
  %62 = getelementptr inbounds i16, ptr %58, i64 %61
  store i64 %57, ptr %62, align 8, !tbaa !18
  %63 = load i64, ptr %10, align 8, !tbaa !14
  %64 = load ptr, ptr %7, align 8, !tbaa !16
  %65 = load i32, ptr %8, align 4, !tbaa !9
  %66 = mul nsw i32 2, %65
  %67 = sext i32 %66 to i64
  %68 = getelementptr inbounds i16, ptr %64, i64 %67
  store i64 %63, ptr %68, align 8, !tbaa !18
  %69 = load i64, ptr %10, align 8, !tbaa !14
  %70 = load ptr, ptr %7, align 8, !tbaa !16
  %71 = load i32, ptr %8, align 4, !tbaa !9
  %72 = mul nsw i32 3, %71
  %73 = sext i32 %72 to i64
  %74 = getelementptr inbounds i16, ptr %70, i64 %73
  store i64 %69, ptr %74, align 8, !tbaa !18
  call void @llvm.lifetime.end.p0(i64 8, ptr %10) #9
  call void @llvm.lifetime.end.p0(i64 4, ptr %9) #9
  call void @llvm.lifetime.end.p0(i64 4, ptr %8) #9
  call void @llvm.lifetime.end.p0(i64 8, ptr %7) #9
  ret void
}

; Function Attrs: nounwind uwtable
define internal void @pred8x8_dc_10_c(ptr noundef %0, i64 noundef %1) #1 {
  %3 = alloca ptr, align 8
  %4 = alloca i64, align 8
  %5 = alloca i32, align 4
  %6 = alloca i32, align 4
  %7 = alloca i32, align 4
  %8 = alloca i32, align 4
  %9 = alloca i64, align 8
  %10 = alloca i64, align 8
  %11 = alloca i64, align 8
  %12 = alloca i64, align 8
  %13 = alloca ptr, align 8
  store ptr %0, ptr %3, align 8, !tbaa !12
  store i64 %1, ptr %4, align 8, !tbaa !14
  call void @llvm.lifetime.start.p0(i64 4, ptr %5) #9
  call void @llvm.lifetime.start.p0(i64 4, ptr %6) #9
  call void @llvm.lifetime.start.p0(i64 4, ptr %7) #9
  call void @llvm.lifetime.start.p0(i64 4, ptr %8) #9
  call void @llvm.lifetime.start.p0(i64 8, ptr %9) #9
  call void @llvm.lifetime.start.p0(i64 8, ptr %10) #9
  call void @llvm.lifetime.start.p0(i64 8, ptr %11) #9
  call void @llvm.lifetime.start.p0(i64 8, ptr %12) #9
  call void @llvm.lifetime.start.p0(i64 8, ptr %13) #9
  %14 = load ptr, ptr %3, align 8, !tbaa !12
  store ptr %14, ptr %13, align 8, !tbaa !16
  %15 = load i64, ptr %4, align 8, !tbaa !14
  %16 = ashr i64 %15, 1
  store i64 %16, ptr %4, align 8, !tbaa !14
  store i32 0, ptr %8, align 4, !tbaa !9
  store i32 0, ptr %7, align 4, !tbaa !9
  store i32 0, ptr %6, align 4, !tbaa !9
  store i32 0, ptr %5, align 4, !tbaa !9
  br label %17

17:                                               ; preds = %64, %2
  %18 = load i32, ptr %5, align 4, !tbaa !9
  %19 = icmp slt i32 %18, 4
  br i1 %19, label %20, label %67

20:                                               ; preds = %17
  %21 = load ptr, ptr %13, align 8, !tbaa !16
  %22 = load i32, ptr %5, align 4, !tbaa !9
  %23 = sext i32 %22 to i64
  %24 = load i64, ptr %4, align 8, !tbaa !14
  %25 = mul nsw i64 %23, %24
  %26 = add nsw i64 -1, %25
  %27 = getelementptr inbounds i16, ptr %21, i64 %26
  %28 = load i16, ptr %27, align 2, !tbaa !19
  %29 = zext i16 %28 to i32
  %30 = load ptr, ptr %13, align 8, !tbaa !16
  %31 = load i32, ptr %5, align 4, !tbaa !9
  %32 = sext i32 %31 to i64
  %33 = load i64, ptr %4, align 8, !tbaa !14
  %34 = sub nsw i64 %32, %33
  %35 = getelementptr inbounds i16, ptr %30, i64 %34
  %36 = load i16, ptr %35, align 2, !tbaa !19
  %37 = zext i16 %36 to i32
  %38 = add nsw i32 %29, %37
  %39 = load i32, ptr %6, align 4, !tbaa !9
  %40 = add nsw i32 %39, %38
  store i32 %40, ptr %6, align 4, !tbaa !9
  %41 = load ptr, ptr %13, align 8, !tbaa !16
  %42 = load i32, ptr %5, align 4, !tbaa !9
  %43 = add nsw i32 4, %42
  %44 = sext i32 %43 to i64
  %45 = load i64, ptr %4, align 8, !tbaa !14
  %46 = sub nsw i64 %44, %45
  %47 = getelementptr inbounds i16, ptr %41, i64 %46
  %48 = load i16, ptr %47, align 2, !tbaa !19
  %49 = zext i16 %48 to i32
  %50 = load i32, ptr %7, align 4, !tbaa !9
  %51 = add nsw i32 %50, %49
  store i32 %51, ptr %7, align 4, !tbaa !9
  %52 = load ptr, ptr %13, align 8, !tbaa !16
  %53 = load i32, ptr %5, align 4, !tbaa !9
  %54 = add nsw i32 %53, 4
  %55 = sext i32 %54 to i64
  %56 = load i64, ptr %4, align 8, !tbaa !14
  %57 = mul nsw i64 %55, %56
  %58 = add nsw i64 -1, %57
  %59 = getelementptr inbounds i16, ptr %52, i64 %58
  %60 = load i16, ptr %59, align 2, !tbaa !19
  %61 = zext i16 %60 to i32
  %62 = load i32, ptr %8, align 4, !tbaa !9
  %63 = add nsw i32 %62, %61
  store i32 %63, ptr %8, align 4, !tbaa !9
  br label %64

64:                                               ; preds = %20
  %65 = load i32, ptr %5, align 4, !tbaa !9
  %66 = add nsw i32 %65, 1
  store i32 %66, ptr %5, align 4, !tbaa !9
  br label %17, !llvm.loop !93

67:                                               ; preds = %17
  %68 = load i32, ptr %6, align 4, !tbaa !9
  %69 = add nsw i32 %68, 4
  %70 = ashr i32 %69, 3
  %71 = sext i32 %70 to i64
  %72 = mul i64 %71, 281479271743489
  store i64 %72, ptr %9, align 8, !tbaa !14
  %73 = load i32, ptr %7, align 4, !tbaa !9
  %74 = add nsw i32 %73, 2
  %75 = ashr i32 %74, 2
  %76 = sext i32 %75 to i64
  %77 = mul i64 %76, 281479271743489
  store i64 %77, ptr %10, align 8, !tbaa !14
  %78 = load i32, ptr %8, align 4, !tbaa !9
  %79 = add nsw i32 %78, 2
  %80 = ashr i32 %79, 2
  %81 = sext i32 %80 to i64
  %82 = mul i64 %81, 281479271743489
  store i64 %82, ptr %11, align 8, !tbaa !14
  %83 = load i32, ptr %7, align 4, !tbaa !9
  %84 = load i32, ptr %8, align 4, !tbaa !9
  %85 = add nsw i32 %83, %84
  %86 = add nsw i32 %85, 4
  %87 = ashr i32 %86, 3
  %88 = sext i32 %87 to i64
  %89 = mul i64 %88, 281479271743489
  store i64 %89, ptr %12, align 8, !tbaa !14
  store i32 0, ptr %5, align 4, !tbaa !9
  br label %90

90:                                               ; preds = %110, %67
  %91 = load i32, ptr %5, align 4, !tbaa !9
  %92 = icmp slt i32 %91, 4
  br i1 %92, label %93, label %113

93:                                               ; preds = %90
  %94 = load i64, ptr %9, align 8, !tbaa !14
  %95 = load ptr, ptr %13, align 8, !tbaa !16
  %96 = load i32, ptr %5, align 4, !tbaa !9
  %97 = sext i32 %96 to i64
  %98 = load i64, ptr %4, align 8, !tbaa !14
  %99 = mul nsw i64 %97, %98
  %100 = getelementptr inbounds i16, ptr %95, i64 %99
  %101 = getelementptr inbounds i64, ptr %100, i64 0
  store i64 %94, ptr %101, align 8, !tbaa !18
  %102 = load i64, ptr %10, align 8, !tbaa !14
  %103 = load ptr, ptr %13, align 8, !tbaa !16
  %104 = load i32, ptr %5, align 4, !tbaa !9
  %105 = sext i32 %104 to i64
  %106 = load i64, ptr %4, align 8, !tbaa !14
  %107 = mul nsw i64 %105, %106
  %108 = getelementptr inbounds i16, ptr %103, i64 %107
  %109 = getelementptr inbounds i64, ptr %108, i64 1
  store i64 %102, ptr %109, align 8, !tbaa !18
  br label %110

110:                                              ; preds = %93
  %111 = load i32, ptr %5, align 4, !tbaa !9
  %112 = add nsw i32 %111, 1
  store i32 %112, ptr %5, align 4, !tbaa !9
  br label %90, !llvm.loop !94

113:                                              ; preds = %90
  store i32 4, ptr %5, align 4, !tbaa !9
  br label %114

114:                                              ; preds = %134, %113
  %115 = load i32, ptr %5, align 4, !tbaa !9
  %116 = icmp slt i32 %115, 8
  br i1 %116, label %117, label %137

117:                                              ; preds = %114
  %118 = load i64, ptr %11, align 8, !tbaa !14
  %119 = load ptr, ptr %13, align 8, !tbaa !16
  %120 = load i32, ptr %5, align 4, !tbaa !9
  %121 = sext i32 %120 to i64
  %122 = load i64, ptr %4, align 8, !tbaa !14
  %123 = mul nsw i64 %121, %122
  %124 = getelementptr inbounds i16, ptr %119, i64 %123
  %125 = getelementptr inbounds i64, ptr %124, i64 0
  store i64 %118, ptr %125, align 8, !tbaa !18
  %126 = load i64, ptr %12, align 8, !tbaa !14
  %127 = load ptr, ptr %13, align 8, !tbaa !16
  %128 = load i32, ptr %5, align 4, !tbaa !9
  %129 = sext i32 %128 to i64
  %130 = load i64, ptr %4, align 8, !tbaa !14
  %131 = mul nsw i64 %129, %130
  %132 = getelementptr inbounds i16, ptr %127, i64 %131
  %133 = getelementptr inbounds i64, ptr %132, i64 1
  store i64 %126, ptr %133, align 8, !tbaa !18
  br label %134

134:                                              ; preds = %117
  %135 = load i32, ptr %5, align 4, !tbaa !9
  %136 = add nsw i32 %135, 1
  store i32 %136, ptr %5, align 4, !tbaa !9
  br label %114, !llvm.loop !95

137:                                              ; preds = %114
  call void @llvm.lifetime.end.p0(i64 8, ptr %13) #9
  call void @llvm.lifetime.end.p0(i64 8, ptr %12) #9
  call void @llvm.lifetime.end.p0(i64 8, ptr %11) #9
  call void @llvm.lifetime.end.p0(i64 8, ptr %10) #9
  call void @llvm.lifetime.end.p0(i64 8, ptr %9) #9
  call void @llvm.lifetime.end.p0(i64 4, ptr %8) #9
  call void @llvm.lifetime.end.p0(i64 4, ptr %7) #9
  call void @llvm.lifetime.end.p0(i64 4, ptr %6) #9
  call void @llvm.lifetime.end.p0(i64 4, ptr %5) #9
  ret void
}

; Function Attrs: nounwind uwtable
define internal void @pred8x8_mad_cow_dc_0lt_10(ptr noundef %0, i64 noundef %1) #1 {
  %3 = alloca ptr, align 8
  %4 = alloca i64, align 8
  store ptr %0, ptr %3, align 8, !tbaa !12
  store i64 %1, ptr %4, align 8, !tbaa !14
  %5 = load ptr, ptr %3, align 8, !tbaa !12
  %6 = load i64, ptr %4, align 8, !tbaa !14
  call void @pred8x8_dc_10_c(ptr noundef %5, i64 noundef %6)
  %7 = load ptr, ptr %3, align 8, !tbaa !12
  %8 = load i64, ptr %4, align 8, !tbaa !14
  call void @pred4x4_top_dc_10_c(ptr noundef %7, ptr noundef null, i64 noundef %8)
  ret void
}