; Function Attrs: nofree norecurse nosync nounwind memory(argmem: readwrite) uwtable
define internal void @pred8x8_mad_cow_dc_0lt_10(ptr noundef captures(none) %0, i64 noundef %1) #3 {
  %3 = ashr i64 %1, 1
  %invariant.gep.i = getelementptr i8, ptr %0, i64 -2
  br label %4

4:                                                ; preds = %4, %2
  %indvars.iv.i = phi i64 [ 0, %2 ], [ %indvars.iv.next.i, %4 ]
  %.04350.i = phi i32 [ 0, %2 ], [ %13, %4 ]
  %.04449.i = phi i32 [ 0, %2 ], [ %19, %4 ]
  %.04548.i = phi i32 [ 0, %2 ], [ %23, %4 ]
  %5 = mul nsw i64 %indvars.iv.i, %3
  %gep.i = getelementptr i16, ptr %invariant.gep.i, i64 %5
  %6 = load i16, ptr %gep.i, align 2, !tbaa !9
  %7 = zext i16 %6 to i32
  %8 = sub nsw i64 %indvars.iv.i, %3
  %9 = getelementptr inbounds i16, ptr %0, i64 %8
  %10 = load i16, ptr %9, align 2, !tbaa !9
  %11 = zext i16 %10 to i32
  %12 = add nuw nsw i32 %.04350.i, %7
  %13 = add nuw nsw i32 %12, %11
  %14 = or disjoint i64 %indvars.iv.i, 4
  %15 = sub nsw i64 %14, %3
  %16 = getelementptr inbounds i16, ptr %0, i64 %15
  %17 = load i16, ptr %16, align 2, !tbaa !9
  %18 = zext i16 %17 to i32
  %19 = add nuw nsw i32 %.04449.i, %18
  %20 = mul nsw i64 %14, %3
  %gep47.i = getelementptr i16, ptr %invariant.gep.i, i64 %20
  %21 = load i16, ptr %gep47.i, align 2, !tbaa !9
  %22 = zext i16 %21 to i32
  %23 = add nuw nsw i32 %.04548.i, %22
  %indvars.iv.next.i = add nuw nsw i64 %indvars.iv.i, 1
  %exitcond.not.i = icmp eq i64 %indvars.iv.next.i, 4
  br i1 %exitcond.not.i, label %24, label %4, !llvm.loop !86

24:                                               ; preds = %4
  %25 = add nuw nsw i32 %13, 4
  %26 = lshr i32 %25, 3
  %27 = zext nneg i32 %26 to i64
  %28 = mul i64 %27, 281479271743489
  %29 = add nuw nsw i32 %19, 2
  %30 = lshr i32 %29, 2
  %31 = zext nneg i32 %30 to i64
  %32 = mul i64 %31, 281479271743489
  br label %33

33:                                               ; preds = %33, %24
  %indvars.iv57.i = phi i64 [ 0, %24 ], [ %indvars.iv.next58.i, %33 ]
  %34 = mul nsw i64 %indvars.iv57.i, %3
  %35 = getelementptr inbounds i16, ptr %0, i64 %34
  store i64 %28, ptr %35, align 8, !tbaa !8
  %36 = getelementptr inbounds nuw i8, ptr %35, i64 8
  store i64 %32, ptr %36, align 8, !tbaa !8
  %indvars.iv.next58.i = add nuw nsw i64 %indvars.iv57.i, 1
  %exitcond60.not.i = icmp eq i64 %indvars.iv.next58.i, 4
  br i1 %exitcond60.not.i, label %.preheader.preheader.i, label %33, !llvm.loop !87

.preheader.preheader.i:                           ; preds = %33
  %37 = add nuw nsw i32 %23, 2
  %38 = lshr i32 %37, 2
  %39 = zext nneg i32 %38 to i64
  %40 = mul i64 %39, 281479271743489
  %41 = add nuw nsw i32 %19, 4
  %42 = add nuw nsw i32 %41, %23
  %43 = lshr i32 %42, 3
  %44 = zext nneg i32 %43 to i64
  %45 = mul i64 %44, 281479271743489
  br label %.preheader.i

.preheader.i:                                     ; preds = %.preheader.i, %.preheader.preheader.i
  %indvars.iv61.i = phi i64 [ 4, %.preheader.preheader.i ], [ %indvars.iv.next62.i, %.preheader.i ]
  %46 = mul nsw i64 %indvars.iv61.i, %3
  %47 = getelementptr inbounds i16, ptr %0, i64 %46
  store i64 %40, ptr %47, align 8, !tbaa !8
  %48 = getelementptr inbounds nuw i8, ptr %47, i64 8
  store i64 %45, ptr %48, align 8, !tbaa !8
  %indvars.iv.next62.i = add nuw nsw i64 %indvars.iv61.i, 1
  %exitcond64.not.i = icmp eq i64 %indvars.iv.next62.i, 8
  br i1 %exitcond64.not.i, label %pred8x8_dc_10_c.exit, label %.preheader.i, !llvm.loop !88

pred8x8_dc_10_c.exit:                             ; preds = %.preheader.i
  %49 = lshr i64 %1, 1
  %50 = trunc i64 %49 to i32
  %.neg.i = mul i64 %49, -4294967296
  %51 = ashr exact i64 %.neg.i, 31
  %52 = getelementptr inbounds i8, ptr %0, i64 %51
  %53 = load i16, ptr %52, align 2, !tbaa !9
  %54 = zext i16 %53 to i64
  %55 = shl i64 %49, 32
  %sext.i = sub i64 4294967296, %55
  %56 = ashr exact i64 %sext.i, 31
  %57 = getelementptr inbounds i8, ptr %0, i64 %56
  %58 = load i16, ptr %57, align 2, !tbaa !9
  %59 = zext i16 %58 to i64
  %sext22.i = sub i64 8589934592, %55
  %60 = ashr exact i64 %sext22.i, 31
  %61 = getelementptr inbounds i8, ptr %0, i64 %60
  %62 = load i16, ptr %61, align 2, !tbaa !9
  %63 = zext i16 %62 to i64
  %sext23.i = sub i64 12884901888, %55
  %64 = ashr exact i64 %sext23.i, 31
  %65 = getelementptr inbounds i8, ptr %0, i64 %64
  %66 = load i16, ptr %65, align 2, !tbaa !9
  %67 = zext i16 %66 to i64
  %68 = add nuw nsw i64 %54, 2
  %69 = add nuw nsw i64 %68, %59
  %70 = add nuw nsw i64 %69, %63
  %71 = add nuw nsw i64 %70, %67
  %72 = lshr i64 %71, 2
  %73 = mul nuw i64 %72, 281479271743489
  store i64 %73, ptr %0, align 8, !tbaa !8
  %74 = ashr exact i64 %55, 31
  %75 = getelementptr inbounds i8, ptr %0, i64 %74
  store i64 %73, ptr %75, align 8, !tbaa !8
  %76 = shl nsw i32 %50, 1
  %77 = sext i32 %76 to i64
  %78 = getelementptr inbounds i16, ptr %0, i64 %77
  store i64 %73, ptr %78, align 8, !tbaa !8
  %sext25.i = mul i64 %49, 12884901888
  %79 = ashr exact i64 %sext25.i, 31
  %80 = getelementptr inbounds i8, ptr %0, i64 %79
  store i64 %73, ptr %80, align 8, !tbaa !8
  ret void
}